; Function Attrs: inlinehint nounwind uwtable
define internal fastcc i32 @pmix_bfrops_base_tma_copy_dbuf(ptr noundef writeonly captures(none) %0, ptr noundef %1) unnamed_addr #8 {
  %calloc.i = tail call noalias noundef dereferenceable_or_null(40) ptr @calloc(i64 1, i64 40)
  %3 = icmp eq ptr %calloc.i, null
  br i1 %3, label %6, label %4, !prof !116

4:                                                ; preds = %2
  store ptr %calloc.i, ptr %0, align 8, !tbaa !295
  %5 = tail call i32 @PMIx_Data_copy_payload(ptr noundef nonnull %calloc.i, ptr noundef %1) #24
  br label %6

6:                                                ; preds = %2, %4
  %.0 = phi i32 [ %5, %4 ], [ -32, %2 ]
  ret i32 %.0
}